LX51 LINKER/LOCATER V4.66.93.0                                                          08/21/2020  22:48:45  PAGE 1


LX51 LINKER/LOCATER V4.66.93.0, INVOKED BY:
C:\KEIL_V5\C51\BIN\LX51.EXE .\OUT\KEIL_C51\MAIN.O TO .\OUT\KEIL_C51\PROJECT PRINT (.\out\Keil_C51\project.map) REMOVEUNU
>> SED


CPU MODE:     8051 MODE
MEMORY MODEL: SMALL WITH FLOATING POINT ARITHMETIC


INPUT MODULES INCLUDED:
  .\OUT\KEIL_C51\MAIN.O (MAIN)
         COMMENT TYPE 0: C51 V9.59.0.0
  C:\KEIL_V5\C51\LIB\C51FPS.LIB (?C?FPMUL)
         COMMENT TYPE 1: A51 / ASM51 Assembler
  C:\KEIL_V5\C51\LIB\C51FPS.LIB (?C?FCAST)
         COMMENT TYPE 1: A51 / ASM51 Assembler
  C:\KEIL_V5\C51\LIB\C51FPS.LIB (?C?CASTF)
         COMMENT TYPE 1: A51 / ASM51 Assembler
  C:\KEIL_V5\C51\LIB\C51FPS.LIB (?C?FPGETOPN)
         COMMENT TYPE 1: A51 / ASM51 Assembler
  C:\KEIL_V5\C51\LIB\C51S.LIB (?C_STARTUP)
         COMMENT TYPE 1: A51 / ASM51 Assembler
  C:\KEIL_V5\C51\LIB\C51S.LIB (?C?COPY)
         COMMENT TYPE 1: A51 / ASM51 Assembler
  C:\KEIL_V5\C51\LIB\C51S.LIB (?C?ULDIV)
         COMMENT TYPE 1: A51 / ASM51 Assembler
  C:\KEIL_V5\C51\LIB\C51S.LIB (?C?LNEG)
         COMMENT TYPE 1: A51 / ASM51 Assembler
  C:\KEIL_V5\C51\LIB\C51S.LIB (?C?ULCMP)
         COMMENT TYPE 1: A51 / ASM51 Assembler
  C:\KEIL_V5\C51\LIB\C51S.LIB (?C?LSHL)
         COMMENT TYPE 1: A51 / ASM51 Assembler


ACTIVE MEMORY CLASSES OF MODULE:  .\OUT\KEIL_C51\PROJECT (MAIN)

BASE        START       END         USED      MEMORY CLASS
==========================================================
C:000000H   C:000000H   C:00FFFFH   000713H   CODE
I:000000H   I:000000H   I:00007FH   000036H   DATA
C:000000H   C:000000H   C:00FFFFH   000036H   CONST
I:000000H   I:000000H   I:0000FFH   000001H   IDATA


MEMORY MAP OF MODULE:  .\OUT\KEIL_C51\PROJECT (MAIN)


START     STOP      LENGTH    ALIGN  RELOC    MEMORY CLASS   SEGMENT NAME
=========================================================================

* * * * * * * * * * *   D A T A   M E M O R Y   * * * * * * * * * * * * *
000000H   000007H   000008H   ---    AT..     DATA           "REG BANK 0"
000008H   000035H   00002EH   BYTE   UNIT     DATA           _DATA_GROUP_
000036H   000036H   000001H   BYTE   UNIT     IDATA          ?STACK

* * * * * * * * * * *   C O D E   M E M O R Y   * * * * * * * * * * * * *
000000H   000002H   000003H   ---    OFFS..   CODE           ?CO??C_STARTUP?0
000003H   0000B5H   0000B3H   BYTE   UNIT     CODE           ?PR?MAIN?MAIN
0000B6H   000138H   000083H   BYTE   UNIT     CODE           ?PR?_DISPLAYLENGTH?MAIN
000139H   0001AFH   000077H   BYTE   UNIT     CODE           ?PR?METERBYTRIG?MAIN
0001B0H   000219H   00006AH   BYTE   UNIT     CODE           ?PR?_LCD_DISPLAY?MAIN
00021AH   00025CH   000043H   BYTE   UNIT     CODE           ?PR?_FIN_DISPLAY?MAIN
00025DH   00028CH   000030H   BYTE   UNIT     CODE           ?PR?_DELAYMS?MAIN
00028DH   0002B0H   000024H   BYTE   UNIT     CODE           ?PR?GREATER_THAN_1M?MAIN
0002B1H   0002D4H   000024H   BYTE   UNIT     CODE           ?PR?LESS_THAN_1M?MAIN
0002D5H   0002EEH   00001AH   BYTE   UNIT     CODE           ?PR?LCD_INIT?MAIN
LX51 LINKER/LOCATER V4.66.93.0                                                        08/21/2020  22:48:45  PAGE 2


0002EFH   000301H   000013H   BYTE   UNIT     CODE           ?PR?UART_INIT?MAIN
000302H   000313H   000012H   BYTE   UNIT     CODE           ?PR?DELAY20MS?MAIN
000314H   000321H   00000EH   BYTE   UNIT     CODE           ?PR?DELAY5S?MAIN
000322H   00032FH   00000EH   BYTE   UNIT     CODE           ?PR?DELAY1S?MAIN
000330H   00033BH   00000CH   BYTE   UNIT     CODE           ?PR?_UARTSND?MAIN
00033CH   000343H   000008H   BYTE   UNIT     CODE           ?PR?_LCD_WCOM?MAIN
000344H   00034BH   000008H   BYTE   UNIT     CODE           ?PR?_LCD_WDATA?MAIN
00034CH   000381H   000036H   BYTE   UNIT     CONST          ?CO?MAIN
000382H   0007FFH   00047EH   ---    ---      **GAP**
000800H   000BBAH   0003BBH   BYTE   UNIT     CODE           ?C?LIB_CODE
000BBBH   000EF3H   000339H   ---    ---      **GAP**
000EF4H   000EFFH   00000CH   BYTE   UNIT     CODE           ?C_C51STARTUP



OVERLAY MAP OF MODULE:   .\OUT\KEIL_C51\PROJECT (MAIN)


FUNCTION/MODULE              BIT_GROUP   DATA_GROUP 
--> CALLED FUNCTION/MODULE  START  STOP  START  STOP
====================================================
?C_C51STARTUP               ----- -----  ----- -----
  +--> MAIN/MAIN

MAIN/MAIN                   ----- -----  0008H 0021H
  +--> LCD_INIT/MAIN
  +--> UART_INIT/MAIN
  +--> METERBYTRIG/MAIN
  +--> _DISPLAYLENGTH/MAIN
  +--> DELAY20MS/MAIN
  +--> _UARTSND/MAIN
  +--> DELAY5S/MAIN
  +--> GREATER_THAN_1M/MAIN
  +--> LESS_THAN_1M/MAIN

LCD_INIT/MAIN               ----- -----  ----- -----
  +--> _LCD_WCOM/MAIN

_LCD_WCOM/MAIN              ----- -----  ----- -----
  +--> _DELAYMS/MAIN

_DELAYMS/MAIN               ----- -----  ----- -----

UART_INIT/MAIN              ----- -----  ----- -----

METERBYTRIG/MAIN            ----- -----  0022H 002AH

_DISPLAYLENGTH/MAIN         ----- -----  0022H 0028H
  +--> _FIN_DISPLAY/MAIN

_FIN_DISPLAY/MAIN           ----- -----  0029H 002EH
  +--> _LCD_DISPLAY/MAIN

_LCD_DISPLAY/MAIN           ----- -----  ----- -----
  +--> _LCD_WCOM/MAIN
  +--> _LCD_WDATA/MAIN
  +--> _DELAYMS/MAIN

_LCD_WDATA/MAIN             ----- -----  ----- -----
  +--> _DELAYMS/MAIN

DELAY20MS/MAIN              ----- -----  ----- -----

_UARTSND/MAIN               ----- -----  ----- -----

LX51 LINKER/LOCATER V4.66.93.0                                                        08/21/2020  22:48:45  PAGE 3


DELAY5S/MAIN                ----- -----  ----- -----

GREATER_THAN_1M/MAIN        ----- -----  0022H 0035H
  +--> DELAY20MS/MAIN
  +--> _UARTSND/MAIN
  +--> DELAY5S/MAIN

LESS_THAN_1M/MAIN           ----- -----  0022H 002FH
  +--> DELAY20MS/MAIN
  +--> _UARTSND/MAIN
  +--> DELAY1S/MAIN

DELAY1S/MAIN                ----- -----  ----- -----



PUBLIC SYMBOLS OF MODULE:  .\OUT\KEIL_C51\PROJECT (MAIN)


      VALUE       CLASS    TYPE      PUBLIC SYMBOL NAME
      =================================================
      01000944H   CODE     ---       ?C?CASTF
      00000000H   NUMBER   ---       ?C?CODESEG
      01000A95H   CODE     ---       ?C?COPY
      01000910H   CODE     ---       ?C?FCASTC
      0100090BH   CODE     ---       ?C?FCASTI
      01000906H   CODE     ---       ?C?FCASTL
      0100097BH   CODE     ---       ?C?FPGETOPN2
      01000800H   CODE     ---       ?C?FPMUL
      010009B0H   CODE     ---       ?C?FPNANRESULT
      010009BAH   CODE     ---       ?C?FPOVERFLOW
      01000992H   CODE     ---       ?C?FPRESULT
      010009A6H   CODE     ---       ?C?FPRESULT2
      010009B7H   CODE     ---       ?C?FPUNDERFLOW
      01000B89H   CODE     ---       ?C?LNEG
      01000BA8H   CODE     ---       ?C?LSHL
      01000B97H   CODE     ---       ?C?ULCMP
      01000AF7H   CODE     ---       ?C?ULDIV
      00000000H   NUMBER   ---       ?C?XDATASEG
      01000003H   CODE     ---       ?C_START
      01000000H   CODE     ---       ?C_STARTUP
      0100026EH   CODE     ---       _delayms
      010000B6H   CODE     ---       _DisplayLength
      0100021AH   CODE     ---       _fin_display
      010001B0H   CODE     ---       _lcd_display
      0100033CH   CODE     ---       _lcd_wcom
      01000344H   CODE     ---       _lcd_wdata
      01000334H   CODE     ---       _UARTSnd
      01000322H   CODE     ---       Delay1s
      0100030BH   CODE     ---       Delay20ms
      01000314H   CODE     ---       Delay5s
      0100028DH   CODE     ---       greater_than_1m
      010002D5H   CODE     ---       lcd_init
      010002B1H   CODE     ---       less_than_1m
      01000003H   CODE     ---       main
      01000139H   CODE     ---       MeterByTrig
      010002EFH   CODE     ---       UART_init



SYMBOL TABLE OF MODULE:  .\OUT\KEIL_C51\PROJECT (MAIN)

      VALUE       REP       CLASS    TYPE      SYMBOL NAME
      ====================================================
      ---         MODULE    ---      ---       MAIN
LX51 LINKER/LOCATER V4.66.93.0                                                        08/21/2020  22:48:45  PAGE 4


      01000003H   PUBLIC    CODE     ---       main
      010002B1H   PUBLIC    CODE     ---       less_than_1m
      0100028DH   PUBLIC    CODE     ---       greater_than_1m
      01000322H   PUBLIC    CODE     ---       Delay1s
      01000314H   PUBLIC    CODE     ---       Delay5s
      0100030BH   PUBLIC    CODE     ---       Delay20ms
      010000B6H   PUBLIC    CODE     ---       _DisplayLength
      01000139H   PUBLIC    CODE     ---       MeterByTrig
      01000334H   PUBLIC    CODE     ---       _UARTSnd
      010002EFH   PUBLIC    CODE     ---       UART_init
      0100021AH   PUBLIC    CODE     ---       _fin_display
      010001B0H   PUBLIC    CODE     ---       _lcd_display
      010002D5H   PUBLIC    CODE     ---       lcd_init
      01000344H   PUBLIC    CODE     ---       _lcd_wdata
      0100033CH   PUBLIC    CODE     ---       _lcd_wcom
      0100026EH   PUBLIC    CODE     ---       _delayms

      0100025DH   BLOCK     CODE     ---       LVL=0
      ---         BLOCKEND  ---      ---       LVL=0

      0100026EH   BLOCK     CODE     ---       LVL=0
      0100026EH   BLOCK     CODE     NEAR LAB  LVL=1
      00000004H   SYMBOL    DATA     VOID      i
      ---         BLOCKEND  ---      ---       LVL=1
      ---         BLOCKEND  ---      ---       LVL=0

      0100033CH   BLOCK     CODE     ---       LVL=0
      ---         BLOCKEND  ---      ---       LVL=0

      01000344H   BLOCK     CODE     ---       LVL=0
      ---         BLOCKEND  ---      ---       LVL=0

      010002D5H   BLOCK     CODE     ---       LVL=0
      ---         BLOCKEND  ---      ---       LVL=0

      010001B0H   BLOCK     CODE     ---       LVL=0
      ---         BLOCKEND  ---      ---       LVL=0

      0100021AH   BLOCK     CODE     ---       LVL=0
      ---         BLOCKEND  ---      ---       LVL=0

      010002EFH   BLOCK     CODE     ---       LVL=0
      ---         BLOCKEND  ---      ---       LVL=0

      01000330H   BLOCK     CODE     ---       LVL=0
      ---         BLOCKEND  ---      ---       LVL=0

      01000334H   BLOCK     CODE     ---       LVL=0
      ---         BLOCKEND  ---      ---       LVL=0

      01000139H   BLOCK     CODE     ---       LVL=0
      01000139H   BLOCK     CODE     NEAR LAB  LVL=1
      00000022H   SYMBOL    DATA     VOID      tempa
      00000007H   SYMBOL    DATA     VOID      tempi
      00000023H   SYMBOL    DATA     VOID      PresentTime
      00000027H   SYMBOL    DATA     VOID      tempb
      ---         BLOCKEND  ---      ---       LVL=1
      ---         BLOCKEND  ---      ---       LVL=0

      010000B6H   BLOCK     CODE     ---       LVL=0
      010000BEH   BLOCK     CODE     NEAR LAB  LVL=1
      00000026H   SYMBOL    DATA     VOID      Thousand
      00000027H   SYMBOL    DATA     VOID      Hundred
      00000028H   SYMBOL    DATA     VOID      Decade
      00000003H   SYMBOL    DATA     VOID      Unit
LX51 LINKER/LOCATER V4.66.93.0                                                        08/21/2020  22:48:45  PAGE 5


      ---         BLOCKEND  ---      ---       LVL=1
      ---         BLOCKEND  ---      ---       LVL=0

      01000302H   BLOCK     CODE     ---       LVL=0
      ---         BLOCKEND  ---      ---       LVL=0

      0100030BH   BLOCK     CODE     ---       LVL=0
      0100030BH   BLOCK     CODE     NEAR LAB  LVL=1
      00000007H   SYMBOL    DATA     VOID      i
      00000006H   SYMBOL    DATA     VOID      j
      ---         BLOCKEND  ---      ---       LVL=1
      ---         BLOCKEND  ---      ---       LVL=0

      01000314H   BLOCK     CODE     ---       LVL=0
      01000314H   BLOCK     CODE     NEAR LAB  LVL=1
      00000007H   SYMBOL    DATA     VOID      i
      00000006H   SYMBOL    DATA     VOID      j
      00000005H   SYMBOL    DATA     VOID      k
      ---         BLOCKEND  ---      ---       LVL=1
      ---         BLOCKEND  ---      ---       LVL=0

      01000322H   BLOCK     CODE     ---       LVL=0
      01000322H   BLOCK     CODE     NEAR LAB  LVL=1
      00000007H   SYMBOL    DATA     VOID      i
      00000006H   SYMBOL    DATA     VOID      j
      00000005H   SYMBOL    DATA     VOID      k
      ---         BLOCKEND  ---      ---       LVL=1
      ---         BLOCKEND  ---      ---       LVL=0

      0100028DH   BLOCK     CODE     ---       LVL=0
      0100028DH   BLOCK     CODE     NEAR LAB  LVL=1
      00000006H   SYMBOL    DATA     VOID      tempj
      00000022H   SYMBOL    DATA     VOID      greater_than_1m
      ---         BLOCKEND  ---      ---       LVL=1
      ---         BLOCKEND  ---      ---       LVL=0

      010002B1H   BLOCK     CODE     ---       LVL=0
      010002B1H   BLOCK     CODE     NEAR LAB  LVL=1
      00000006H   SYMBOL    DATA     VOID      tempj
      00000022H   SYMBOL    DATA     VOID      less_than_1m
      ---         BLOCKEND  ---      ---       LVL=1
      ---         BLOCKEND  ---      ---       LVL=0

      01000003H   BLOCK     CODE     ---       LVL=0
      01000003H   BLOCK     CODE     NEAR LAB  LVL=1
      00000008H   SYMBOL    DATA     VOID      tempa
      00000009H   SYMBOL    DATA     VOID      PreLength
      00000005H   SYMBOL    DATA     VOID      i
      00000006H   SYMBOL    DATA     VOID      tempj
      0000000DH   SYMBOL    DATA     VOID      greater_than_2m
      00000021H   SYMBOL    DATA     VOID      debug
      ---         BLOCKEND  ---      ---       LVL=1
      ---         BLOCKEND  ---      ---       LVL=0

      ---         MODULE    ---      ---       ?C?FPMUL
      01000800H   PUBLIC    CODE     ---       ?C?FPMUL

      ---         MODULE    ---      ---       ?C?FCAST
      01000910H   PUBLIC    CODE     ---       ?C?FCASTC
      0100090BH   PUBLIC    CODE     ---       ?C?FCASTI
      01000906H   PUBLIC    CODE     ---       ?C?FCASTL

      ---         MODULE    ---      ---       ?C?CASTF
      01000944H   PUBLIC    CODE     ---       ?C?CASTF

LX51 LINKER/LOCATER V4.66.93.0                                                        08/21/2020  22:48:45  PAGE 6


      ---         MODULE    ---      ---       ?C?FPGETOPN
      0100097BH   PUBLIC    CODE     ---       ?C?FPGETOPN2
      010009B0H   PUBLIC    CODE     ---       ?C?FPNANRESULT
      010009BAH   PUBLIC    CODE     ---       ?C?FPOVERFLOW
      01000992H   PUBLIC    CODE     ---       ?C?FPRESULT
      010009A6H   PUBLIC    CODE     ---       ?C?FPRESULT2
      010009B7H   PUBLIC    CODE     ---       ?C?FPUNDERFLOW

      ---         MODULE    ---      ---       ?C_STARTUP
      01000000H   PUBLIC    CODE     ---       ?C_STARTUP

      ---         MODULE    ---      ---       ?C?COPY
      01000A95H   PUBLIC    CODE     ---       ?C?COPY

      ---         MODULE    ---      ---       ?C?ULDIV
      01000AF7H   PUBLIC    CODE     ---       ?C?ULDIV

      ---         MODULE    ---      ---       ?C?LNEG
      01000B89H   PUBLIC    CODE     ---       ?C?LNEG

      ---         MODULE    ---      ---       ?C?ULCMP
      01000B97H   PUBLIC    CODE     ---       ?C?ULCMP

      ---         MODULE    ---      ---       ?C?LSHL
      01000BA8H   PUBLIC    CODE     ---       ?C?LSHL

******************************************************************************
* RESTRICTED VERSION WITH 0800H BYTE CODE SIZE LIMIT; USED: 037FH BYTE (43%) *
******************************************************************************

Program Size: data=55.0 xdata=0 const=54 code=1811
LX51 RUN COMPLETE.  0 WARNING(S),  0 ERROR(S)
